; Function Attrs: mustprogress uwtable
define void @_ZN6icu_7734SimpleFilteredBreakIteratorBuilderC2ER10UErrorCode(ptr noundef nonnull align 8 dereferenceable(48) initializes((0, 8)) %0, ptr noundef nonnull align 4 dereferenceable(4) %1) unnamed_addr #2 align 2 personality ptr @__gxx_personality_v0 {
  store ptr getelementptr inbounds nuw inrange(-16, 48) (i8, ptr @_ZTVN6icu_7734SimpleFilteredBreakIteratorBuilderE, i64 16), ptr %0, align 8, !tbaa !3
  %3 = getelementptr inbounds nuw i8, ptr %0, i64 8
  invoke void @_ZN6icu_777UVectorC2EPFvPvEPFa8UElementS4_EiR10UErrorCode(ptr noundef nonnull align 8 dereferenceable(40) %3, ptr noundef nonnull @uprv_deleteUObject_77, ptr noundef nonnull @uhash_compareUnicodeString_77, i32 noundef 1, ptr noundef nonnull align 4 dereferenceable(4) %1)
          to label %4 unwind label %5

4:                                                ; preds = %2
  store ptr getelementptr inbounds nuw inrange(-16, 24) (i8, ptr @_ZTVN6icu_7710UStringSetE, i64 16), ptr %3, align 8, !tbaa !3
  ret void

5:                                                ; preds = %2
  %6 = landingpad { ptr, i32 }
          cleanup
  tail call void @_ZN6icu_777UObjectD2Ev(ptr noundef nonnull align 8 dereferenceable(8) %0) #14
  resume { ptr, i32 } %6
}